; Function Attrs: mustprogress uwtable
define dso_local noundef nonnull ptr @_ZNK22FunctionInvocationUser5cloneEv(ptr noundef nonnull align 8 dereferenceable(65) %0) unnamed_addr #4 align 2 personality ptr @__gxx_personality_v0 {
  %2 = tail call noalias noundef nonnull dereferenceable(72) ptr @_Znwm(i64 noundef 72) #21
  invoke void @_ZN18FunctionInvocationC2ERKS_(ptr noundef nonnull align 8 dereferenceable(65) %2, ptr noundef nonnull align 8 dereferenceable(65) %0)
          to label %3 unwind label %10

3:                                                ; preds = %1
  store ptr getelementptr inbounds nuw inrange(-16, 104) (i8, ptr @_ZTV22FunctionInvocationUser, i64 16), ptr %2, align 8, !tbaa !30
  %4 = getelementptr inbounds nuw i8, ptr %2, i64 56
  %5 = getelementptr inbounds nuw i8, ptr %0, i64 56
  %6 = load ptr, ptr %5, align 8, !tbaa !36
  store ptr %6, ptr %4, align 8, !tbaa !36
  %7 = getelementptr inbounds nuw i8, ptr %2, i64 64
  %8 = getelementptr inbounds nuw i8, ptr %0, i64 64
  %9 = load i8, ptr %8, align 8, !tbaa !82, !range !83, !noundef !84
  store i8 %9, ptr %7, align 8, !tbaa !82
  ret ptr %2

10:                                               ; preds = %1
  %11 = landingpad { ptr, i32 }
          cleanup
  tail call void @_ZdlPvm(ptr noundef nonnull %2, i64 noundef 72) #19
  resume { ptr, i32 } %11
}